; Function Attrs: mustprogress nounwind uwtable
define hidden void @_ZN7datalog13udoc_relationD2Ev(ptr noundef nonnull align 8 captures(address) dereferenceable(128) initializes((0, 8)) %0) unnamed_addr #5 align 2 personality ptr @__gxx_personality_v0 {
  store ptr getelementptr inbounds nuw inrange(-16, 160) (i8, ptr @_ZTVN7datalog13udoc_relationE, i64 16), ptr %0, align 8, !tbaa !3
  %2 = getelementptr inbounds nuw i8, ptr %0, i64 40
  %3 = getelementptr inbounds nuw i8, ptr %0, i64 32
  %4 = load ptr, ptr %3, align 8, !tbaa !144
  %5 = getelementptr inbounds nuw i8, ptr %0, i64 48
  %6 = load i32, ptr %5, align 8, !tbaa !35
  %.not.i.i = icmp eq i32 %6, 0
  br i1 %.not.i.i, label %.loopexit, label %.lr.ph.i.i

.lr.ph.i.i:                                       ; preds = %1, %.noexc
  %indvars.iv.i.i = phi i64 [ %indvars.iv.next.i.i, %.noexc ], [ 0, %1 ]
  %7 = load ptr, ptr %2, align 8, !tbaa !32
  %8 = getelementptr inbounds nuw ptr, ptr %7, i64 %indvars.iv.i.i
  %9 = load ptr, ptr %8, align 8, !tbaa !148
  invoke void @_ZN11doc_manager10deallocateEP3doc(ptr noundef nonnull align 8 dereferenceable(1080) %4, ptr noundef %9)
          to label %.noexc unwind label %34

.noexc:                                           ; preds = %.lr.ph.i.i
  %indvars.iv.next.i.i = add nuw nsw i64 %indvars.iv.i.i, 1
  %10 = load i32, ptr %5, align 8, !tbaa !35
  %11 = zext i32 %10 to i64
  %12 = icmp samesign ult i64 %indvars.iv.next.i.i, %11
  br i1 %12, label %.lr.ph.i.i, label %.loopexit, !llvm.loop !150

.loopexit:                                        ; preds = %.noexc, %1
  store i32 0, ptr %5, align 8, !tbaa !35
  %13 = getelementptr inbounds nuw i8, ptr %0, i64 120
  %14 = load ptr, ptr %13, align 8, !tbaa !37
  %.not.i.i1 = icmp eq ptr %14, null
  br i1 %.not.i.i1, label %_ZN6vectorIjLb0EjED2Ev.exit, label %15

15:                                               ; preds = %.loopexit
  %16 = getelementptr inbounds i8, ptr %14, i64 -8
  invoke void @_ZN6memory10deallocateEPv(ptr noundef nonnull %16)
          to label %_ZN6vectorIjLb0EjED2Ev.exit unwind label %17

17:                                               ; preds = %15
  %18 = landingpad { ptr, i32 }
          catch ptr null
  %19 = extractvalue { ptr, i32 } %18, 0
  tail call void @__clang_call_terminate(ptr %19) #26
  unreachable

_ZN6vectorIjLb0EjED2Ev.exit:                      ; preds = %.loopexit, %15
  %20 = load ptr, ptr %2, align 8, !tbaa !32
  %21 = getelementptr inbounds nuw i8, ptr %0, i64 56
  %.not.i.i.i.i = icmp eq ptr %20, %21
  %22 = icmp eq ptr %20, null
  %or.cond.i.i.i.i = or i1 %.not.i.i.i.i, %22
  br i1 %or.cond.i.i.i.i, label %_ZN10union_bvecI11doc_manager3docED2Ev.exit, label %23

23:                                               ; preds = %_ZN6vectorIjLb0EjED2Ev.exit
  invoke void @_ZN6memory10deallocateEPv(ptr noundef nonnull %20)
          to label %_ZN10union_bvecI11doc_manager3docED2Ev.exit unwind label %24

24:                                               ; preds = %23
  %25 = landingpad { ptr, i32 }
          catch ptr null
  %26 = extractvalue { ptr, i32 } %25, 0
  tail call void @__clang_call_terminate(ptr %26) #26
  unreachable

_ZN10union_bvecI11doc_manager3docED2Ev.exit:      ; preds = %_ZN6vectorIjLb0EjED2Ev.exit, %23
  store ptr getelementptr inbounds nuw inrange(-16, 128) (i8, ptr @_ZTVN7datalog17tr_infrastructureINS_15relation_traitsEE13base_ancestorE, i64 16), ptr %0, align 8, !tbaa !3
  %27 = getelementptr inbounds nuw i8, ptr %0, i64 16
  %28 = load ptr, ptr %27, align 8, !tbaa !10
  %.not.i.i.i = icmp eq ptr %28, null
  br i1 %.not.i.i.i, label %_ZN7datalog17tr_infrastructureINS_15relation_traitsEE13base_ancestorD2Ev.exit, label %29

29:                                               ; preds = %_ZN10union_bvecI11doc_manager3docED2Ev.exit
  %30 = getelementptr inbounds i8, ptr %28, i64 -8
  invoke void @_ZN6memory10deallocateEPv(ptr noundef nonnull %30)
          to label %_ZN7datalog17tr_infrastructureINS_15relation_traitsEE13base_ancestorD2Ev.exit unwind label %31

31:                                               ; preds = %29
  %32 = landingpad { ptr, i32 }
          catch ptr null
  %33 = extractvalue { ptr, i32 } %32, 0
  tail call void @__clang_call_terminate(ptr %33) #26
  unreachable

_ZN7datalog17tr_infrastructureINS_15relation_traitsEE13base_ancestorD2Ev.exit: ; preds = %_ZN10union_bvecI11doc_manager3docED2Ev.exit, %29
  ret void

34:                                               ; preds = %.lr.ph.i.i
  %35 = landingpad { ptr, i32 }
          catch ptr null
  %36 = extractvalue { ptr, i32 } %35, 0
  tail call void @__clang_call_terminate(ptr %36) #26
  unreachable
}